target datalayout = "e-m:e-p270:32:32-p271:32:32-p272:64:64-i64:64-i128:128-f80:128-n8:16:32:64-S128"
target triple = "x86_64-pc-linux-gnu"

%struct.anon.0 = type { i32, ptr, ptr }

@.str.13 = private unnamed_addr constant [2 x i8] c",\00", align 1
@.str.205 = private unnamed_addr constant [56 x i8] c"%s: Unable to match %s to a slurmdbd_assoc_flags_t flag\00", align 1
@__func__._str_2_assoc_flag = private unnamed_addr constant [18 x i8] c"_str_2_assoc_flag\00", align 1

; Function Attrs: nounwind uwtable
define internal i32 @_str_2_assoc_flag(ptr noundef %0) #0 {
  %2 = alloca i32, align 4
  %3 = alloca ptr, align 8
  %4 = alloca i32, align 4
  %5 = alloca i32, align 4
  store ptr %0, ptr %3, align 8
  %6 = load ptr, ptr %3, align 8
  %7 = icmp ne ptr %6, null
  br i1 %7, label %8, label %13

8:                                                ; preds = %1
  %9 = load ptr, ptr %3, align 8
  %10 = getelementptr inbounds i8, ptr %9, i64 0
  %11 = load i8, ptr %10, align 1
  %12 = icmp ne i8 %11, 0
  br i1 %12, label %14, label %13

13:                                               ; preds = %8, %1
  store i32 0, ptr %2, align 4
  br label %53

14:                                               ; preds = %8
  call void @llvm.lifetime.start.p0(i64 4, ptr %4) #10
  store i32 0, ptr %4, align 4
  br label %15

15:                                               ; preds = %38, %14
  %16 = load i32, ptr %4, align 4
  %17 = sext i32 %16 to i64
  %18 = icmp ult i64 %17, 6
  br i1 %18, label %20, label %19

19:                                               ; preds = %15
  store i32 2, ptr %5, align 4
  br label %41

20:                                               ; preds = %15
  %21 = load ptr, ptr %3, align 8
  %22 = load i32, ptr %4, align 4
  %23 = sext i32 %22 to i64
  %24 = getelementptr inbounds [6 x %struct.anon.0], ptr @slurmdb_assoc_flags_map, i64 0, i64 %23
  %25 = getelementptr inbounds nuw %struct.anon.0, ptr %24, i32 0, i32 2
  %26 = load ptr, ptr %25, align 8
  %27 = load ptr, ptr %3, align 8
  %28 = call i64 @strlen(ptr noundef %27) #11
  %29 = call i32 @xstrncasecmp(ptr noundef %21, ptr noundef %26, i64 noundef %28)
  %30 = icmp ne i32 %29, 0
  br i1 %30, label %37, label %31

31:                                               ; preds = %20
  %32 = load i32, ptr %4, align 4
  %33 = sext i32 %32 to i64
  %34 = getelementptr inbounds [6 x %struct.anon.0], ptr @slurmdb_assoc_flags_map, i64 0, i64 %33
  %35 = getelementptr inbounds nuw %struct.anon.0, ptr %34, i32 0, i32 0
  %36 = load i32, ptr %35, align 8
  store i32 %36, ptr %2, align 4
  store i32 1, ptr %5, align 4
  br label %41

37:                                               ; preds = %20
  br label %38

38:                                               ; preds = %37
  %39 = load i32, ptr %4, align 4
  %40 = add nsw i32 %39, 1
  store i32 %40, ptr %4, align 4
  br label %15, !llvm.loop !22

41:                                               ; preds = %31, %19
  call void @llvm.lifetime.end.p0(i64 4, ptr %4) #10
  %42 = load i32, ptr %5, align 4
  switch i32 %42, label %55 [
    i32 2, label %43
    i32 1, label %53
  ]

43:                                               ; preds = %41
  br label %44

44:                                               ; preds = %43
  br label %45

45:                                               ; preds = %44
  %46 = call i32 @get_log_level()
  %47 = icmp sge i32 %46, 5
  br i1 %47, label %48, label %50

48:                                               ; preds = %45
  %49 = load ptr, ptr %3, align 8
  call void (i32, ptr, ...) @log_var(i32 noundef 5, ptr noundef @.str.205, ptr noundef @__func__._str_2_assoc_flag, ptr noundef %49)
  br label %50

50:                                               ; preds = %48, %45
  br label %51

51:                                               ; preds = %50
  br label %52

52:                                               ; preds = %51
  store i32 65537, ptr %2, align 4
  br label %53

53:                                               ; preds = %52, %41, %13
  %54 = load i32, ptr %2, align 4
  ret i32 %54

55:                                               ; preds = %41
  unreachable
}

; Function Attrs: nounwind uwtable
define dso_local i32 @str_2_slurmdb_assoc_flags(ptr noundef %0) #0 {
  %2 = alloca ptr, align 8
  %3 = alloca i32, align 4
  %4 = alloca ptr, align 8
  %5 = alloca ptr, align 8
  %6 = alloca ptr, align 8
  %7 = alloca i32, align 4
  %8 = alloca i32, align 4
  store ptr %0, ptr %2, align 8
  call void @llvm.lifetime.start.p0(i64 4, ptr %3) #10
  store i32 0, ptr %3, align 4
  call void @llvm.lifetime.start.p0(i64 8, ptr %4) #10
  call void @llvm.lifetime.start.p0(i64 8, ptr %5) #10
  call void @llvm.lifetime.start.p0(i64 8, ptr %6) #10
  store ptr null, ptr %6, align 8
  %9 = load ptr, ptr %2, align 8
  %10 = call ptr @xstrdup(ptr noundef %9)
  store ptr %10, ptr %5, align 8
  %11 = load ptr, ptr %5, align 8
  %12 = call ptr @strtok_r(ptr noundef %11, ptr noundef @.str.13, ptr noundef %6) #10
  store ptr %12, ptr %4, align 8
  br label %13

13:                                               ; preds = %29, %1
  %14 = load ptr, ptr %4, align 8
  %15 = icmp ne ptr %14, null
  br i1 %15, label %16, label %30

16:                                               ; preds = %13
  call void @llvm.lifetime.start.p0(i64 4, ptr %7) #10
  %17 = load ptr, ptr %4, align 8
  %18 = call i32 @_str_2_assoc_flag(ptr noundef %17)
  store i32 %18, ptr %7, align 4
  %19 = load i32, ptr %7, align 4
  %20 = icmp eq i32 %19, 65537
  br i1 %20, label %21, label %22

21:                                               ; preds = %16
  store i32 65537, ptr %3, align 4
  store i32 3, ptr %8, align 4
  br label %27

22:                                               ; preds = %16
  %23 = load i32, ptr %7, align 4
  %24 = load i32, ptr %3, align 4
  %25 = or i32 %24, %23
  store i32 %25, ptr %3, align 4
  %26 = call ptr @strtok_r(ptr noundef null, ptr noundef @.str.13, ptr noundef %6) #10
  store ptr %26, ptr %4, align 8
  store i32 0, ptr %8, align 4
  br label %27

27:                                               ; preds = %22, %21
  call void @llvm.lifetime.end.p0(i64 4, ptr %7) #10
  %28 = load i32, ptr %8, align 4
  switch i32 %28, label %32 [
    i32 0, label %29
    i32 3, label %30
  ]

29:                                               ; preds = %27
  br label %13, !llvm.loop !21

30:                                               ; preds = %27, %13
  call void @slurm_xfree(ptr noundef %5)
  %31 = load i32, ptr %3, align 4
  store i32 1, ptr %8, align 4
  call void @llvm.lifetime.end.p0(i64 8, ptr %6) #10
  call void @llvm.lifetime.end.p0(i64 8, ptr %5) #10
  call void @llvm.lifetime.end.p0(i64 8, ptr %4) #10
  call void @llvm.lifetime.end.p0(i64 4, ptr %3) #10
  ret i32 %31

32:                                               ; preds = %27
  unreachable
}