; Function Attrs: nounwind uwtable
define dso_local i32 @str_2_slurmdb_assoc_flags(ptr noundef %0) local_unnamed_addr #0 {
  %2 = alloca ptr, align 8
  %3 = alloca ptr, align 8
  call void @llvm.lifetime.start.p0(i64 8, ptr nonnull %2) #19
  call void @llvm.lifetime.start.p0(i64 8, ptr nonnull %3) #19
  store ptr null, ptr %3, align 8
  %4 = tail call ptr @xstrdup(ptr noundef %0) #19
  store ptr %4, ptr %2, align 8
  %5 = call ptr @strtok_r(ptr noundef %4, ptr noundef nonnull @.str.13, ptr noundef nonnull %3) #19
  %.not21 = icmp eq ptr %5, null
  br i1 %.not21, label %.thread, label %.lr.ph

.lr.ph:                                           ; preds = %1, %_str_2_assoc_flag.exit.thread12
  %.0723 = phi i32 [ %19, %_str_2_assoc_flag.exit.thread12 ], [ 0, %1 ]
  %.0822 = phi ptr [ %20, %_str_2_assoc_flag.exit.thread12 ], [ %5, %1 ]
  %6 = load i8, ptr %.0822, align 1
  %.not.i = icmp eq i8 %6, 0
  br i1 %.not.i, label %_str_2_assoc_flag.exit.thread12, label %.preheader.i

7:                                                ; preds = %.preheader.i
  %indvars.iv.next.i = add nuw nsw i64 %indvars.iv.i, 1
  %exitcond.not.i = icmp eq i64 %indvars.iv.next.i, 6
  br i1 %exitcond.not.i, label %13, label %.preheader.i, !llvm.loop !18

.preheader.i:                                     ; preds = %.lr.ph, %7
  %indvars.iv.i = phi i64 [ %indvars.iv.next.i, %7 ], [ 0, %.lr.ph ]
  %8 = getelementptr inbounds nuw [6 x %struct.anon.0], ptr @slurmdb_assoc_flags_map, i64 0, i64 %indvars.iv.i
  %9 = getelementptr inbounds nuw i8, ptr %8, i64 16
  %10 = load ptr, ptr %9, align 8
  %11 = call i64 @strlen(ptr noundef nonnull dereferenceable(1) %.0822) #20
  %12 = call i32 @xstrncasecmp(ptr noundef nonnull %.0822, ptr noundef %10, i64 noundef %11) #19
  %.not14.i = icmp eq i32 %12, 0
  br i1 %.not14.i, label %_str_2_assoc_flag.exit, label %7

13:                                               ; preds = %7
  %14 = call i32 @get_log_level() #19
  %15 = icmp sgt i32 %14, 4
  br i1 %15, label %16, label %.thread

16:                                               ; preds = %13
  call void (i32, ptr, ...) @log_var(i32 noundef 5, ptr noundef nonnull @.str.205, ptr noundef nonnull @__func__._str_2_assoc_flag, ptr noundef nonnull %.0822) #19
  br label %.thread

_str_2_assoc_flag.exit:                           ; preds = %.preheader.i
  %17 = load i32, ptr %8, align 8
  %18 = icmp eq i32 %17, 65537
  br i1 %18, label %.thread, label %_str_2_assoc_flag.exit.thread12

_str_2_assoc_flag.exit.thread12:                  ; preds = %.lr.ph, %_str_2_assoc_flag.exit
  %.011.i14 = phi i32 [ %17, %_str_2_assoc_flag.exit ], [ 0, %.lr.ph ]
  %19 = or i32 %.011.i14, %.0723
  %20 = call ptr @strtok_r(ptr noundef null, ptr noundef nonnull @.str.13, ptr noundef nonnull %3) #19
  %.not = icmp eq ptr %20, null
  br i1 %.not, label %.thread, label %.lr.ph

.thread:                                          ; preds = %_str_2_assoc_flag.exit.thread12, %_str_2_assoc_flag.exit, %1, %13, %16
  %.1 = phi i32 [ 65537, %16 ], [ 65537, %13 ], [ 0, %1 ], [ %19, %_str_2_assoc_flag.exit.thread12 ], [ 65537, %_str_2_assoc_flag.exit ]
  call void @slurm_xfree(ptr noundef nonnull %2) #19
  call void @llvm.lifetime.end.p0(i64 8, ptr nonnull %3) #19
  call void @llvm.lifetime.end.p0(i64 8, ptr nonnull %2) #19
  ret i32 %.1
}